(dp0
Vengine
p1
S'pdflatex'
p2
sVpackages
p3
c__builtin__
set
p4
((lp5
Venumitem
p6
aVsubfigure
p7
aVurl
p8
aVbabel
p9
aVlistings
p10
aVcolor
p11
aVtabularx
p12
aVgraphicx
p13
atp14
Rp15
sVfiles_with_guttermarks
p16
g4
((lp17
V/Users/florianmorath/Desktop/VS_Pacman/proposal/report/./report.tex
p18
aS'report.tex'
p19
atp20
Rp21
sVsynctex
p22
I01
s.